; Function Attrs: mustprogress nounwind uwtable
define dso_local noundef ptr @_ZN5clang19OMPCapturedExprDecl18CreateDeserializedERNS_10ASTContextENS_12GlobalDeclIDE(ptr noundef nonnull align 8 dereferenceable(23096) %0, i64 %1) local_unnamed_addr #1 align 2 {
  %3 = tail call noundef ptr @_ZN5clang4DeclnwEmRKNS_10ASTContextENS_12GlobalDeclIDEm(i64 noundef 104, ptr noundef nonnull align 8 dereferenceable(23096) %0, i64 %1, i64 noundef 0) #10
  tail call void @_ZN5clang7VarDeclC2ENS_4Decl4KindERNS_10ASTContextEPNS_11DeclContextENS_14SourceLocationES7_PKNS_14IdentifierInfoENS_8QualTypeEPNS_14TypeSourceInfoENS_12StorageClassE(ptr noundef nonnull align 8 dereferenceable(100) %3, i32 noundef 41, ptr noundef nonnull align 8 dereferenceable(23096) %0, ptr noundef null, i32 0, i32 0, ptr noundef null, i64 0, ptr noundef null, i32 noundef 0) #10
  store ptr getelementptr inbounds inrange(-16, 104) (i8, ptr @_ZTVN5clang19OMPCapturedExprDeclE, i64 16), ptr %3, align 8
  %4 = getelementptr inbounds nuw i8, ptr %3, i64 28
  %5 = load i32, ptr %4, align 4
  %6 = or i32 %5, 512
  store i32 %6, ptr %4, align 4
  ret ptr %3
}